target datalayout = "e-m:e-p270:32:32-p271:32:32-p272:64:64-i64:64-i128:128-f80:128-n8:16:32:64-S128"
target triple = "x86_64-pc-linux-gnu"

%class.LogTagSet = type { ptr, i64, [5 x i32], [4 x i8], %class.LogOutputList, %class.LogDecorators, ptr }
%class.LogOutputList = type <{ [6 x ptr], i32, [4 x i8] }>
%class.LogDecorators = type { i32 }
%class.AdaptiveSizePolicy = type { ptr, double, i64, i64, i64, %class.GCOverheadChecker, ptr, ptr, ptr, ptr, ptr, ptr, ptr, ptr, ptr, ptr, ptr, ptr, ptr, ptr, double, double, double, i8, i32, i32, i32, i32, i8, i8, i8, i32, i32, i64, i64 }
%class.GCOverheadChecker = type { i8, i32 }
%class.AdaptiveWeightedAverage = type { float, i32, i32, i8, float }

@.str.9 = private unnamed_addr constant [25 x i8] c" *** pause time goal ***\00", align 1
@.str.10 = private unnamed_addr constant [25 x i8] c" *** throughput goal ***\00", align 1
@.str.11 = private unnamed_addr constant [27 x i8] c" *** reduced footprint ***\00", align 1
@.str.12 = private unnamed_addr constant [22 x i8] c"(attempted to shrink)\00", align 1
@.str.13 = private unnamed_addr constant [20 x i8] c"(attempted to grow)\00", align 1
@.str.14 = private unnamed_addr constant [12 x i8] c"(no change)\00", align 1
@.str.15 = private unnamed_addr constant [41 x i8] c"UseAdaptiveSizePolicy actions to meet %s\00", align 1
@.str.16 = private unnamed_addr constant [40 x i8] c"                       GC overhead (%%)\00", align 1
@.str.17 = private unnamed_addr constant [37 x i8] c"    Young generation:     %7.2f\09  %s\00", align 1
@.str.18 = private unnamed_addr constant [37 x i8] c"    Tenured generation:   %7.2f\09  %s\00", align 1
@_ZN16LogTagSetMappingILN6LogTag4typeE49ELS1_40ELS1_0ELS1_0ELS1_0ELS1_0EE7_tagsetE = linkonce_odr hidden global %class.LogTagSet zeroinitializer, comdat, align 8

; Function Attrs: mustprogress nounwind uwtable
define linkonce_odr hidden noundef zeroext i1 @_ZNK13LogOutputList8is_levelEN8LogLevel4typeE(ptr noundef nonnull align 8 dereferenceable(52) %0, i32 noundef %1) #1 comdat align 2 {
  %3 = alloca ptr, align 8
  %4 = alloca i32, align 4
  store ptr %0, ptr %3, align 8
  store i32 %1, ptr %4, align 4
  %5 = load ptr, ptr %3, align 8
  %6 = getelementptr inbounds %class.LogOutputList, ptr %5, i32 0, i32 0
  %7 = load i32, ptr %4, align 4
  %8 = zext i32 %7 to i64
  %9 = getelementptr inbounds [6 x ptr], ptr %6, i64 0, i64 %8
  %10 = load volatile ptr, ptr %9, align 8
  %11 = icmp ne ptr %10, null
  ret i1 %11
}

; Function Attrs: mustprogress nounwind uwtable
define linkonce_odr hidden noundef zeroext i1 @_ZNK9LogTagSet8is_levelEN8LogLevel4typeE(ptr noundef nonnull align 8 dereferenceable(112) %0, i32 noundef %1) #1 comdat align 2 {
  %3 = alloca ptr, align 8
  %4 = alloca i32, align 4
  store ptr %0, ptr %3, align 8
  store i32 %1, ptr %4, align 4
  %5 = load ptr, ptr %3, align 8
  %6 = getelementptr inbounds %class.LogTagSet, ptr %5, i32 0, i32 4
  %7 = load i32, ptr %4, align 4
  %8 = call noundef zeroext i1 @_ZNK13LogOutputList8is_levelEN8LogLevel4typeE(ptr noundef nonnull align 8 dereferenceable(52) %6, i32 noundef %7)
  ret i1 %8
}

; Function Attrs: mustprogress nounwind uwtable
define linkonce_odr hidden noundef nonnull align 8 dereferenceable(112) ptr @_ZN16LogTagSetMappingILN6LogTag4typeE49ELS1_40ELS1_0ELS1_0ELS1_0ELS1_0EE6tagsetEv() #1 comdat align 2 {
  ret ptr @_ZN16LogTagSetMappingILN6LogTag4typeE49ELS1_40ELS1_0ELS1_0ELS1_0ELS1_0EE7_tagsetE
}

; Function Attrs: mustprogress nounwind uwtable
define linkonce_odr hidden noundef ptr @_ZNK18AdaptiveSizePolicy17avg_major_gc_costEv(ptr noundef nonnull align 8 dereferenceable(232) %0) #1 comdat align 2 {
  %2 = alloca ptr, align 8
  store ptr %0, ptr %2, align 8
  %3 = load ptr, ptr %2, align 8
  %4 = getelementptr inbounds %class.AdaptiveSizePolicy, ptr %3, i32 0, i32 10
  %5 = load ptr, ptr %4, align 8
  ret ptr %5
}

; Function Attrs: mustprogress nounwind uwtable
define linkonce_odr hidden noundef float @_ZNK23AdaptiveWeightedAverage7averageEv(ptr noundef nonnull align 4 dereferenceable(20) %0) #1 comdat align 2 {
  %2 = alloca ptr, align 8
  store ptr %0, ptr %2, align 8
  %3 = load ptr, ptr %2, align 8
  %4 = getelementptr inbounds %class.AdaptiveWeightedAverage, ptr %3, i32 0, i32 0
  %5 = load float, ptr %4, align 4
  ret float %5
}

; Function Attrs: mustprogress nounwind uwtable
define linkonce_odr hidden noundef ptr @_ZNK18AdaptiveSizePolicy17avg_minor_gc_costEv(ptr noundef nonnull align 8 dereferenceable(232) %0) #1 comdat align 2 {
  %2 = alloca ptr, align 8
  store ptr %0, ptr %2, align 8
  %3 = load ptr, ptr %2, align 8
  %4 = getelementptr inbounds %class.AdaptiveSizePolicy, ptr %3, i32 0, i32 8
  %5 = load ptr, ptr %4, align 8
  ret ptr %5
}

; Function Attrs: mustprogress nounwind uwtable
define linkonce_odr hidden noundef i32 @_ZNK18AdaptiveSizePolicy22decrease_for_footprintEv(ptr noundef nonnull align 8 dereferenceable(232) %0) #1 comdat align 2 {
  %2 = alloca ptr, align 8
  store ptr %0, ptr %2, align 8
  %3 = load ptr, ptr %2, align 8
  %4 = getelementptr inbounds %class.AdaptiveSizePolicy, ptr %3, i32 0, i32 31
  %5 = load i32, ptr %4, align 8
  ret i32 %5
}

; Function Attrs: mustprogress nounwind uwtable
define linkonce_odr hidden noundef i32 @_ZNK18AdaptiveSizePolicy31change_young_gen_for_throughputEv(ptr noundef nonnull align 8 dereferenceable(232) %0) #1 comdat align 2 {
  %2 = alloca ptr, align 8
  store ptr %0, ptr %2, align 8
  %3 = load ptr, ptr %2, align 8
  %4 = getelementptr inbounds %class.AdaptiveSizePolicy, ptr %3, i32 0, i32 27
  %5 = load i32, ptr %4, align 8
  ret i32 %5
}

; Function Attrs: mustprogress nounwind uwtable
define linkonce_odr hidden noundef i32 @_ZNK18AdaptiveSizePolicy29change_old_gen_for_throughputEv(ptr noundef nonnull align 8 dereferenceable(232) %0) #1 comdat align 2 {
  %2 = alloca ptr, align 8
  store ptr %0, ptr %2, align 8
  %3 = load ptr, ptr %2, align 8
  %4 = getelementptr inbounds %class.AdaptiveSizePolicy, ptr %3, i32 0, i32 26
  %5 = load i32, ptr %4, align 4
  ret i32 %5
}

; Function Attrs: mustprogress nounwind uwtable
define linkonce_odr hidden noundef i32 @_ZNK18AdaptiveSizePolicy31change_young_gen_for_min_pausesEv(ptr noundef nonnull align 8 dereferenceable(232) %0) #1 comdat align 2 {
  %2 = alloca ptr, align 8
  store ptr %0, ptr %2, align 8
  %3 = load ptr, ptr %2, align 8
  %4 = getelementptr inbounds %class.AdaptiveSizePolicy, ptr %3, i32 0, i32 24
  %5 = load i32, ptr %4, align 4
  ret i32 %5
}

; Function Attrs: mustprogress nounwind uwtable
define linkonce_odr hidden noundef i32 @_ZNK18AdaptiveSizePolicy29change_old_gen_for_maj_pausesEv(ptr noundef nonnull align 8 dereferenceable(232) %0) #1 comdat align 2 {
  %2 = alloca ptr, align 8
  store ptr %0, ptr %2, align 8
  %3 = load ptr, ptr %2, align 8
  %4 = getelementptr inbounds %class.AdaptiveSizePolicy, ptr %3, i32 0, i32 25
  %5 = load i32, ptr %4, align 8
  ret i32 %5
}

; Function Attrs: mustprogress nounwind uwtable
define linkonce_odr hidden noundef zeroext i1 @_ZN7LogImplILN6LogTag4typeE49ELS1_40ELS1_0ELS1_0ELS1_0ELS1_0EE8is_levelEN8LogLevel4typeE(i32 noundef %0) #1 comdat align 2 {
  %2 = alloca i32, align 4
  store i32 %0, ptr %2, align 4
  %3 = call noundef nonnull align 8 dereferenceable(112) ptr @_ZN16LogTagSetMappingILN6LogTag4typeE49ELS1_40ELS1_0ELS1_0ELS1_0ELS1_0EE6tagsetEv()
  %4 = load i32, ptr %2, align 4
  %5 = call noundef zeroext i1 @_ZNK9LogTagSet8is_levelEN8LogLevel4typeE(ptr noundef nonnull align 8 dereferenceable(112) %3, i32 noundef %4)
  ret i1 %5
}

; Function Attrs: mustprogress nounwind uwtable
define hidden noundef zeroext i1 @_ZNK18AdaptiveSizePolicy5printEv(ptr noundef nonnull align 8 dereferenceable(232) %0) unnamed_addr #1 align 2 {
  %2 = alloca i1, align 1
  %3 = alloca ptr, align 8
  %4 = alloca ptr, align 8
  %5 = alloca i8, align 1
  %6 = alloca ptr, align 8
  %7 = alloca ptr, align 8
  %8 = alloca ptr, align 8
  %9 = alloca ptr, align 8
  %10 = alloca ptr, align 8
  store ptr %0, ptr %3, align 8
  %11 = load ptr, ptr %3, align 8
  %12 = call noundef zeroext i1 @_ZN7LogImplILN6LogTag4typeE49ELS1_40ELS1_0ELS1_0ELS1_0ELS1_0EE8is_levelEN8LogLevel4typeE(i32 noundef 2)
  br i1 %12, label %14, label %13

13:                                               ; preds = %1
  store i1 false, ptr %2, align 1
  br label %104

14:                                               ; preds = %1
  store ptr null, ptr %4, align 8
  store i8 0, ptr %5, align 1
  %15 = call noundef i32 @_ZNK18AdaptiveSizePolicy29change_old_gen_for_maj_pausesEv(ptr noundef nonnull align 8 dereferenceable(232) %11)
  %16 = icmp eq i32 %15, 2
  br i1 %16, label %20, label %17

17:                                               ; preds = %14
  %18 = call noundef i32 @_ZNK18AdaptiveSizePolicy31change_young_gen_for_min_pausesEv(ptr noundef nonnull align 8 dereferenceable(232) %11)
  %19 = icmp eq i32 %18, 1
  br i1 %19, label %20, label %21

20:                                               ; preds = %17, %14
  store ptr @.str.9, ptr %4, align 8
  store i8 1, ptr %5, align 1
  br label %35

21:                                               ; preds = %17
  %22 = call noundef i32 @_ZNK18AdaptiveSizePolicy29change_old_gen_for_throughputEv(ptr noundef nonnull align 8 dereferenceable(232) %11)
  %23 = icmp eq i32 %22, 4
  br i1 %23, label %27, label %24

24:                                               ; preds = %21
  %25 = call noundef i32 @_ZNK18AdaptiveSizePolicy31change_young_gen_for_throughputEv(ptr noundef nonnull align 8 dereferenceable(232) %11)
  %26 = icmp eq i32 %25, 5
  br i1 %26, label %27, label %28

27:                                               ; preds = %24, %21
  store ptr @.str.10, ptr %4, align 8
  br label %34

28:                                               ; preds = %24
  %29 = call noundef i32 @_ZNK18AdaptiveSizePolicy22decrease_for_footprintEv(ptr noundef nonnull align 8 dereferenceable(232) %11)
  %30 = icmp ne i32 %29, 0
  br i1 %30, label %31, label %32

31:                                               ; preds = %28
  store ptr @.str.11, ptr %4, align 8
  br label %33

32:                                               ; preds = %28
  store i1 false, ptr %2, align 1
  br label %104

33:                                               ; preds = %31
  br label %34

34:                                               ; preds = %33, %27
  br label %35

35:                                               ; preds = %34, %20
  store ptr null, ptr %6, align 8
  store ptr null, ptr %7, align 8
  store ptr @.str.12, ptr %8, align 8
  store ptr @.str.13, ptr %9, align 8
  store ptr @.str.14, ptr %10, align 8
  %36 = call noundef i32 @_ZNK18AdaptiveSizePolicy31change_young_gen_for_min_pausesEv(ptr noundef nonnull align 8 dereferenceable(232) %11)
  %37 = icmp eq i32 %36, 1
  br i1 %37, label %38, label %40

38:                                               ; preds = %35
  %39 = load ptr, ptr %8, align 8
  store ptr %39, ptr %6, align 8
  br label %46

40:                                               ; preds = %35
  %41 = load i8, ptr %5, align 1
  %42 = trunc i8 %41 to i1
  br i1 %42, label %43, label %45

43:                                               ; preds = %40
  %44 = load ptr, ptr %10, align 8
  store ptr %44, ptr %6, align 8
  br label %45

45:                                               ; preds = %43, %40
  br label %46

46:                                               ; preds = %45, %38
  %47 = call noundef i32 @_ZNK18AdaptiveSizePolicy29change_old_gen_for_maj_pausesEv(ptr noundef nonnull align 8 dereferenceable(232) %11)
  %48 = icmp eq i32 %47, 2
  br i1 %48, label %49, label %51

49:                                               ; preds = %46
  %50 = load ptr, ptr %8, align 8
  store ptr %50, ptr %7, align 8
  br label %57

51:                                               ; preds = %46
  %52 = load i8, ptr %5, align 1
  %53 = trunc i8 %52 to i1
  br i1 %53, label %54, label %56

54:                                               ; preds = %51
  %55 = load ptr, ptr %10, align 8
  store ptr %55, ptr %7, align 8
  br label %56

56:                                               ; preds = %54, %51
  br label %57

57:                                               ; preds = %56, %49
  %58 = call noundef i32 @_ZNK18AdaptiveSizePolicy29change_old_gen_for_throughputEv(ptr noundef nonnull align 8 dereferenceable(232) %11)
  %59 = icmp eq i32 %58, 4
  br i1 %59, label %60, label %63

60:                                               ; preds = %57
  %61 = load ptr, ptr %9, align 8
  store ptr %61, ptr %6, align 8
  %62 = load ptr, ptr %9, align 8
  store ptr %62, ptr %7, align 8
  br label %70

63:                                               ; preds = %57
  %64 = call noundef i32 @_ZNK18AdaptiveSizePolicy31change_young_gen_for_throughputEv(ptr noundef nonnull align 8 dereferenceable(232) %11)
  %65 = icmp eq i32 %64, 5
  br i1 %65, label %66, label %69

66:                                               ; preds = %63
  %67 = load ptr, ptr %9, align 8
  store ptr %67, ptr %6, align 8
  %68 = load ptr, ptr %10, align 8
  store ptr %68, ptr %7, align 8
  br label %69

69:                                               ; preds = %66, %63
  br label %70

70:                                               ; preds = %69, %60
  %71 = call noundef i32 @_ZNK18AdaptiveSizePolicy22decrease_for_footprintEv(ptr noundef nonnull align 8 dereferenceable(232) %11)
  %72 = icmp ne i32 %71, 0
  br i1 %72, label %73, label %76

73:                                               ; preds = %70
  %74 = load ptr, ptr %8, align 8
  store ptr %74, ptr %6, align 8
  %75 = load ptr, ptr %8, align 8
  store ptr %75, ptr %7, align 8
  br label %76

76:                                               ; preds = %73, %70
  %77 = call noundef zeroext i1 @_ZN7LogImplILN6LogTag4typeE49ELS1_40ELS1_0ELS1_0ELS1_0ELS1_0EE8is_levelEN8LogLevel4typeE(i32 noundef 2)
  br i1 %77, label %79, label %78

78:                                               ; preds = %76
  br label %81

79:                                               ; preds = %76
  %80 = load ptr, ptr %4, align 8
  call void (ptr, ...) @_ZN7LogImplILN6LogTag4typeE49ELS1_40ELS1_0ELS1_0ELS1_0ELS1_0EE5writeILN8LogLevel4typeE2EEEvPKcz(ptr noundef @.str.15, ptr noundef %80)
  br label %81

81:                                               ; preds = %79, %78
  %82 = call noundef zeroext i1 @_ZN7LogImplILN6LogTag4typeE49ELS1_40ELS1_0ELS1_0ELS1_0ELS1_0EE8is_levelEN8LogLevel4typeE(i32 noundef 2)
  br i1 %82, label %84, label %83

83:                                               ; preds = %81
  br label %85

84:                                               ; preds = %81
  call void (ptr, ...) @_ZN7LogImplILN6LogTag4typeE49ELS1_40ELS1_0ELS1_0ELS1_0ELS1_0EE5writeILN8LogLevel4typeE2EEEvPKcz(ptr noundef @.str.16)
  br label %85

85:                                               ; preds = %84, %83
  %86 = call noundef zeroext i1 @_ZN7LogImplILN6LogTag4typeE49ELS1_40ELS1_0ELS1_0ELS1_0ELS1_0EE8is_levelEN8LogLevel4typeE(i32 noundef 2)
  br i1 %86, label %88, label %87

87:                                               ; preds = %85
  br label %94

88:                                               ; preds = %85
  %89 = call noundef ptr @_ZNK18AdaptiveSizePolicy17avg_minor_gc_costEv(ptr noundef nonnull align 8 dereferenceable(232) %11)
  %90 = call noundef float @_ZNK23AdaptiveWeightedAverage7averageEv(ptr noundef nonnull align 4 dereferenceable(20) %89)
  %91 = fpext float %90 to double
  %92 = fmul double 1.000000e+02, %91
  %93 = load ptr, ptr %6, align 8
  call void (ptr, ...) @_ZN7LogImplILN6LogTag4typeE49ELS1_40ELS1_0ELS1_0ELS1_0ELS1_0EE5writeILN8LogLevel4typeE2EEEvPKcz(ptr noundef @.str.17, double noundef %92, ptr noundef %93)
  br label %94

94:                                               ; preds = %88, %87
  %95 = call noundef zeroext i1 @_ZN7LogImplILN6LogTag4typeE49ELS1_40ELS1_0ELS1_0ELS1_0ELS1_0EE8is_levelEN8LogLevel4typeE(i32 noundef 2)
  br i1 %95, label %97, label %96

96:                                               ; preds = %94
  br label %103

97:                                               ; preds = %94
  %98 = call noundef ptr @_ZNK18AdaptiveSizePolicy17avg_major_gc_costEv(ptr noundef nonnull align 8 dereferenceable(232) %11)
  %99 = call noundef float @_ZNK23AdaptiveWeightedAverage7averageEv(ptr noundef nonnull align 4 dereferenceable(20) %98)
  %100 = fpext float %99 to double
  %101 = fmul double 1.000000e+02, %100
  %102 = load ptr, ptr %7, align 8
  call void (ptr, ...) @_ZN7LogImplILN6LogTag4typeE49ELS1_40ELS1_0ELS1_0ELS1_0ELS1_0EE5writeILN8LogLevel4typeE2EEEvPKcz(ptr noundef @.str.18, double noundef %101, ptr noundef %102)
  br label %103

103:                                              ; preds = %97, %96
  store i1 true, ptr %2, align 1
  br label %104

104:                                              ; preds = %103, %32, %13
  %105 = load i1, ptr %2, align 1
  ret i1 %105
}