; Function Attrs: mustprogress nounwind uwtable
define hidden noundef zeroext i1 @_ZNK18AdaptiveSizePolicy5printEv(ptr nocapture noundef nonnull readonly align 8 dereferenceable(232) %0) unnamed_addr #0 align 2 {
  %2 = load volatile ptr, ptr getelementptr inbounds (i8, ptr @_ZN16LogTagSetMappingILN6LogTag4typeE49ELS1_40ELS1_0ELS1_0ELS1_0ELS1_0EE7_tagsetE, i64 56), align 8
  %.not36 = icmp eq ptr %2, null
  br i1 %.not36, label %46, label %3

3:                                                ; preds = %1
  %4 = getelementptr inbounds i8, ptr %0, i64 192
  %5 = load i32, ptr %4, align 8
  %6 = icmp eq i32 %5, 2
  %7 = getelementptr inbounds i8, ptr %0, i64 188
  %8 = load i32, ptr %7, align 4
  %9 = icmp eq i32 %8, 1
  %or.cond = select i1 %6, i1 true, i1 %9
  %.phi.trans.insert = getelementptr inbounds i8, ptr %0, i64 196
  %.pre = load i32, ptr %.phi.trans.insert, align 4
  br i1 %or.cond, label %..thread_crit_edge, label %10

..thread_crit_edge:                               ; preds = %3
  %.phi.trans.insert41 = getelementptr inbounds i8, ptr %0, i64 200
  %.pre42 = load i32, ptr %.phi.trans.insert41, align 8
  br label %.thread

10:                                               ; preds = %3
  %11 = icmp eq i32 %.pre, 4
  %12 = getelementptr inbounds i8, ptr %0, i64 200
  %13 = load i32, ptr %12, align 8
  %14 = icmp eq i32 %13, 5
  %or.cond35 = select i1 %11, i1 true, i1 %14
  br i1 %or.cond35, label %.thread, label %15

15:                                               ; preds = %10
  %16 = getelementptr inbounds i8, ptr %0, i64 208
  %17 = load i32, ptr %16, align 8
  %.not = icmp eq i32 %17, 0
  br i1 %.not, label %46, label %.thread

.thread:                                          ; preds = %..thread_crit_edge, %15, %10
  %18 = phi i32 [ %13, %15 ], [ %13, %10 ], [ %.pre42, %..thread_crit_edge ]
  %.01630 = phi ptr [ @.str.11, %15 ], [ @.str.10, %10 ], [ @.str.9, %..thread_crit_edge ]
  %19 = phi ptr [ null, %15 ], [ null, %10 ], [ @.str.14, %..thread_crit_edge ]
  %.019 = select i1 %9, ptr @.str.12, ptr %19
  %.018 = select i1 %6, ptr @.str.12, ptr %19
  %20 = icmp eq i32 %.pre, 4
  %21 = icmp eq i32 %18, 5
  %spec.select25 = select i1 %21, ptr @.str.14, ptr %.018
  %22 = select i1 %20, i1 true, i1 %21
  %.120 = select i1 %22, ptr @.str.13, ptr %.019
  %.1 = select i1 %20, ptr @.str.13, ptr %spec.select25
  %23 = getelementptr inbounds i8, ptr %0, i64 208
  %24 = load i32, ptr %23, align 8
  %.not22 = icmp eq i32 %24, 0
  %spec.select26 = select i1 %.not22, ptr %.120, ptr @.str.12
  %spec.select27 = select i1 %.not22, ptr %.1, ptr @.str.12
  %25 = load volatile ptr, ptr getelementptr inbounds (i8, ptr @_ZN16LogTagSetMappingILN6LogTag4typeE49ELS1_40ELS1_0ELS1_0ELS1_0ELS1_0EE7_tagsetE, i64 56), align 8
  %.not37 = icmp eq ptr %25, null
  br i1 %.not37, label %27, label %26

26:                                               ; preds = %.thread
  tail call void (ptr, ...) @_ZN7LogImplILN6LogTag4typeE49ELS1_40ELS1_0ELS1_0ELS1_0ELS1_0EE5writeILN8LogLevel4typeE2EEEvPKcz(ptr noundef nonnull @.str.15, ptr noundef nonnull %.01630)
  br label %27

27:                                               ; preds = %.thread, %26
  %28 = load volatile ptr, ptr getelementptr inbounds (i8, ptr @_ZN16LogTagSetMappingILN6LogTag4typeE49ELS1_40ELS1_0ELS1_0ELS1_0ELS1_0EE7_tagsetE, i64 56), align 8
  %.not38 = icmp eq ptr %28, null
  br i1 %.not38, label %30, label %29

29:                                               ; preds = %27
  tail call void (ptr, ...) @_ZN7LogImplILN6LogTag4typeE49ELS1_40ELS1_0ELS1_0ELS1_0ELS1_0EE5writeILN8LogLevel4typeE2EEEvPKcz(ptr noundef nonnull @.str.16)
  br label %30

30:                                               ; preds = %27, %29
  %31 = load volatile ptr, ptr getelementptr inbounds (i8, ptr @_ZN16LogTagSetMappingILN6LogTag4typeE49ELS1_40ELS1_0ELS1_0ELS1_0ELS1_0EE7_tagsetE, i64 56), align 8
  %.not39 = icmp eq ptr %31, null
  br i1 %.not39, label %38, label %32

32:                                               ; preds = %30
  %33 = getelementptr inbounds i8, ptr %0, i64 64
  %34 = load ptr, ptr %33, align 8
  %35 = load float, ptr %34, align 4
  %36 = fpext float %35 to double
  %37 = fmul double %36, 1.000000e+02
  tail call void (ptr, ...) @_ZN7LogImplILN6LogTag4typeE49ELS1_40ELS1_0ELS1_0ELS1_0ELS1_0EE5writeILN8LogLevel4typeE2EEEvPKcz(ptr noundef nonnull @.str.17, double noundef %37, ptr noundef %spec.select26)
  br label %38

38:                                               ; preds = %30, %32
  %39 = load volatile ptr, ptr getelementptr inbounds (i8, ptr @_ZN16LogTagSetMappingILN6LogTag4typeE49ELS1_40ELS1_0ELS1_0ELS1_0ELS1_0EE7_tagsetE, i64 56), align 8
  %.not40 = icmp eq ptr %39, null
  br i1 %.not40, label %46, label %40

40:                                               ; preds = %38
  %41 = getelementptr inbounds i8, ptr %0, i64 80
  %42 = load ptr, ptr %41, align 8
  %43 = load float, ptr %42, align 4
  %44 = fpext float %43 to double
  %45 = fmul double %44, 1.000000e+02
  tail call void (ptr, ...) @_ZN7LogImplILN6LogTag4typeE49ELS1_40ELS1_0ELS1_0ELS1_0ELS1_0EE5writeILN8LogLevel4typeE2EEEvPKcz(ptr noundef nonnull @.str.18, double noundef %45, ptr noundef %spec.select27)
  br label %46

46:                                               ; preds = %40, %38, %15, %1
  %.0 = phi i1 [ false, %1 ], [ false, %15 ], [ true, %38 ], [ true, %40 ]
  ret i1 %.0
}